target datalayout = "e-m:e-p270:32:32-p271:32:32-p272:64:64-i64:64-i128:128-f80:128-n8:16:32:64-S128"
target triple = "x86_64-pc-linux-gnu"

%struct._bacapp_info_value_t = type { ptr, ptr, ptr, ptr }
%struct._packet_info = type { ptr, ptr, i32, i32, %struct.nstime_t, %struct.nstime_t, %struct.nstime_t, i8, ptr, ptr, ptr, ptr, %struct._address, %struct._address, %struct._address, %struct._address, %struct._address, %struct._address, i32, ptr, i8, [3 x i8], %struct.anon, i32, i32, i32, i32, ptr, i8, ptr, ptr, i16, i16, i32, i32, i16, i32, i32, ptr, ptr, ptr, i8, i8, i16, i16, i16, i32, i16, i16, ptr, ptr, ptr, ptr, ptr, i32, i32 }
%struct.nstime_t = type { i64, i32 }
%struct._address = type { i32, i32, ptr, ptr }
%struct.anon = type { i8, [3 x i8] }

@.str.3953 = private unnamed_addr constant [6 x i8] c"Src: \00", align 1
@.str.3954 = private unnamed_addr constant [6 x i8] c"Dst: \00", align 1
@st_str_packets_by_ip = internal global ptr @.str.3955, align 8
@st_str_packets_by_ip_dst = internal global ptr @.str.3956, align 8
@st_node_packets_by_ip = internal global i32 -1, align 4
@st_str_packets_by_ip_src = internal global ptr @.str.3957, align 8

; Function Attrs: null_pointer_is_valid sspstrong uwtable
define internal ptr @bacapp_get_address_label(ptr noundef %0, ptr noundef %1) #0 {
  %3 = alloca ptr, align 8
  %4 = alloca ptr, align 8
  %5 = alloca ptr, align 8
  %6 = alloca ptr, align 8
  store ptr %0, ptr %3, align 8
  store ptr %1, ptr %4, align 8
  call void @llvm.lifetime.start.p0(i64 8, ptr %5) #7
  call void @llvm.lifetime.start.p0(i64 8, ptr %6) #7
  %7 = load ptr, ptr %4, align 8
  %8 = call ptr @address_to_str(ptr noundef null, ptr noundef %7)
  store ptr %8, ptr %5, align 8
  %9 = load ptr, ptr %3, align 8
  %10 = load ptr, ptr %5, align 8
  %11 = call noalias ptr (ptr, ptr, ...) @wmem_strconcat(ptr noundef null, ptr noundef %9, ptr noundef %10, ptr noundef null)
  store ptr %11, ptr %6, align 8
  %12 = load ptr, ptr %5, align 8
  call void @wmem_free(ptr noundef null, ptr noundef %12)
  %13 = load ptr, ptr %6, align 8
  call void @llvm.lifetime.end.p0(i64 8, ptr %6) #7
  call void @llvm.lifetime.end.p0(i64 8, ptr %5) #7
  ret ptr %13
}

; Function Attrs: null_pointer_is_valid sspstrong uwtable
define internal i32 @bacapp_stats_tree_packet(ptr noundef %0, ptr noundef %1, ptr noundef %2, ptr noundef %3, i32 noundef %4) #0 {
  %6 = alloca ptr, align 8
  %7 = alloca ptr, align 8
  %8 = alloca ptr, align 8
  %9 = alloca ptr, align 8
  %10 = alloca i32, align 4
  %11 = alloca i32, align 4
  %12 = alloca i32, align 4
  %13 = alloca i32, align 4
  %14 = alloca i32, align 4
  %15 = alloca i32, align 4
  %16 = alloca i32, align 4
  %17 = alloca i32, align 4
  %18 = alloca i32, align 4
  %19 = alloca i32, align 4
  %20 = alloca i32, align 4
  %21 = alloca ptr, align 8
  %22 = alloca ptr, align 8
  %23 = alloca ptr, align 8
  store ptr %0, ptr %6, align 8
  store ptr %1, ptr %7, align 8
  store ptr %2, ptr %8, align 8
  store ptr %3, ptr %9, align 8
  store i32 %4, ptr %10, align 4
  call void @llvm.lifetime.start.p0(i64 4, ptr %11) #7
  call void @llvm.lifetime.start.p0(i64 4, ptr %12) #7
  call void @llvm.lifetime.start.p0(i64 4, ptr %13) #7
  call void @llvm.lifetime.start.p0(i64 4, ptr %14) #7
  call void @llvm.lifetime.start.p0(i64 4, ptr %15) #7
  call void @llvm.lifetime.start.p0(i64 4, ptr %16) #7
  call void @llvm.lifetime.start.p0(i64 4, ptr %17) #7
  call void @llvm.lifetime.start.p0(i64 4, ptr %18) #7
  call void @llvm.lifetime.start.p0(i64 4, ptr %19) #7
  call void @llvm.lifetime.start.p0(i64 4, ptr %20) #7
  call void @llvm.lifetime.start.p0(i64 8, ptr %21) #7
  call void @llvm.lifetime.start.p0(i64 8, ptr %22) #7
  call void @llvm.lifetime.start.p0(i64 8, ptr %23) #7
  %24 = load ptr, ptr %9, align 8
  store ptr %24, ptr %23, align 8
  %25 = load ptr, ptr %7, align 8
  %26 = getelementptr inbounds nuw %struct._packet_info, ptr %25, i32 0, i32 16
  %27 = call ptr @bacapp_get_address_label(ptr noundef @.str.3953, ptr noundef %26)
  store ptr %27, ptr %22, align 8
  %28 = load ptr, ptr %7, align 8
  %29 = getelementptr inbounds nuw %struct._packet_info, ptr %28, i32 0, i32 17
  %30 = call ptr @bacapp_get_address_label(ptr noundef @.str.3954, ptr noundef %29)
  store ptr %30, ptr %21, align 8
  %31 = load ptr, ptr %6, align 8
  %32 = load ptr, ptr @st_str_packets_by_ip, align 8
  %33 = call i32 @stats_tree_manip_node_int(i32 noundef 0, ptr noundef %31, ptr noundef %32, i32 noundef 0, i1 noundef zeroext true, i32 noundef 1)
  %34 = load ptr, ptr %6, align 8
  %35 = load ptr, ptr @st_str_packets_by_ip_dst, align 8
  %36 = load i32, ptr @st_node_packets_by_ip, align 4
  %37 = call i32 @stats_tree_manip_node_int(i32 noundef 0, ptr noundef %34, ptr noundef %35, i32 noundef %36, i1 noundef zeroext true, i32 noundef 1)
  store i32 %37, ptr %11, align 4
  %38 = load ptr, ptr %6, align 8
  %39 = load ptr, ptr @st_str_packets_by_ip_src, align 8
  %40 = load i32, ptr @st_node_packets_by_ip, align 4
  %41 = call i32 @stats_tree_manip_node_int(i32 noundef 0, ptr noundef %38, ptr noundef %39, i32 noundef %40, i1 noundef zeroext true, i32 noundef 1)
  store i32 %41, ptr %12, align 4
  %42 = load ptr, ptr %6, align 8
  %43 = load ptr, ptr %21, align 8
  %44 = load i32, ptr %11, align 4
  %45 = call i32 @stats_tree_manip_node_int(i32 noundef 0, ptr noundef %42, ptr noundef %43, i32 noundef %44, i1 noundef zeroext true, i32 noundef 1)
  store i32 %45, ptr %15, align 4
  %46 = load ptr, ptr %6, align 8
  %47 = load ptr, ptr %22, align 8
  %48 = load i32, ptr %12, align 4
  %49 = call i32 @stats_tree_manip_node_int(i32 noundef 0, ptr noundef %46, ptr noundef %47, i32 noundef %48, i1 noundef zeroext true, i32 noundef 1)
  store i32 %49, ptr %16, align 4
  %50 = load ptr, ptr %6, align 8
  %51 = load ptr, ptr %21, align 8
  %52 = load i32, ptr %16, align 4
  %53 = call i32 @stats_tree_manip_node_int(i32 noundef 0, ptr noundef %50, ptr noundef %51, i32 noundef %52, i1 noundef zeroext true, i32 noundef 1)
  store i32 %53, ptr %14, align 4
  %54 = load ptr, ptr %6, align 8
  %55 = load ptr, ptr %22, align 8
  %56 = load i32, ptr %15, align 4
  %57 = call i32 @stats_tree_manip_node_int(i32 noundef 0, ptr noundef %54, ptr noundef %55, i32 noundef %56, i1 noundef zeroext true, i32 noundef 1)
  store i32 %57, ptr %13, align 4
  %58 = load ptr, ptr %23, align 8
  %59 = getelementptr inbounds nuw %struct._bacapp_info_value_t, ptr %58, i32 0, i32 0
  %60 = load ptr, ptr %59, align 8
  %61 = icmp ne ptr %60, null
  br i1 %61, label %62, label %105

62:                                               ; preds = %5
  %63 = load ptr, ptr %6, align 8
  %64 = load ptr, ptr %23, align 8
  %65 = getelementptr inbounds nuw %struct._bacapp_info_value_t, ptr %64, i32 0, i32 0
  %66 = load ptr, ptr %65, align 8
  %67 = load i32, ptr %13, align 4
  %68 = call i32 @stats_tree_manip_node_int(i32 noundef 0, ptr noundef %63, ptr noundef %66, i32 noundef %67, i1 noundef zeroext true, i32 noundef 1)
  store i32 %68, ptr %17, align 4
  %69 = load ptr, ptr %6, align 8
  %70 = load ptr, ptr %23, align 8
  %71 = getelementptr inbounds nuw %struct._bacapp_info_value_t, ptr %70, i32 0, i32 0
  %72 = load ptr, ptr %71, align 8
  %73 = load i32, ptr %14, align 4
  %74 = call i32 @stats_tree_manip_node_int(i32 noundef 0, ptr noundef %69, ptr noundef %72, i32 noundef %73, i1 noundef zeroext true, i32 noundef 1)
  store i32 %74, ptr %18, align 4
  %75 = load ptr, ptr %23, align 8
  %76 = getelementptr inbounds nuw %struct._bacapp_info_value_t, ptr %75, i32 0, i32 3
  %77 = load ptr, ptr %76, align 8
  %78 = icmp ne ptr %77, null
  br i1 %78, label %79, label %104

79:                                               ; preds = %62
  %80 = load ptr, ptr %6, align 8
  %81 = load ptr, ptr %23, align 8
  %82 = getelementptr inbounds nuw %struct._bacapp_info_value_t, ptr %81, i32 0, i32 3
  %83 = load ptr, ptr %82, align 8
  %84 = load i32, ptr %17, align 4
  %85 = call i32 @stats_tree_manip_node_int(i32 noundef 0, ptr noundef %80, ptr noundef %83, i32 noundef %84, i1 noundef zeroext true, i32 noundef 1)
  store i32 %85, ptr %19, align 4
  %86 = load ptr, ptr %6, align 8
  %87 = load ptr, ptr %23, align 8
  %88 = getelementptr inbounds nuw %struct._bacapp_info_value_t, ptr %87, i32 0, i32 2
  %89 = load ptr, ptr %88, align 8
  %90 = load i32, ptr %19, align 4
  %91 = call i32 @stats_tree_manip_node_int(i32 noundef 0, ptr noundef %86, ptr noundef %89, i32 noundef %90, i1 noundef zeroext false, i32 noundef 1)
  %92 = load ptr, ptr %6, align 8
  %93 = load ptr, ptr %23, align 8
  %94 = getelementptr inbounds nuw %struct._bacapp_info_value_t, ptr %93, i32 0, i32 3
  %95 = load ptr, ptr %94, align 8
  %96 = load i32, ptr %18, align 4
  %97 = call i32 @stats_tree_manip_node_int(i32 noundef 0, ptr noundef %92, ptr noundef %95, i32 noundef %96, i1 noundef zeroext true, i32 noundef 1)
  store i32 %97, ptr %20, align 4
  %98 = load ptr, ptr %6, align 8
  %99 = load ptr, ptr %23, align 8
  %100 = getelementptr inbounds nuw %struct._bacapp_info_value_t, ptr %99, i32 0, i32 2
  %101 = load ptr, ptr %100, align 8
  %102 = load i32, ptr %20, align 4
  %103 = call i32 @stats_tree_manip_node_int(i32 noundef 0, ptr noundef %98, ptr noundef %101, i32 noundef %102, i1 noundef zeroext false, i32 noundef 1)
  br label %104

104:                                              ; preds = %79, %62
  br label %105

105:                                              ; preds = %104, %5
  %106 = load ptr, ptr %22, align 8
  call void @wmem_free(ptr noundef null, ptr noundef %106)
  %107 = load ptr, ptr %21, align 8
  call void @wmem_free(ptr noundef null, ptr noundef %107)
  call void @llvm.lifetime.end.p0(i64 8, ptr %23) #7
  call void @llvm.lifetime.end.p0(i64 8, ptr %22) #7
  call void @llvm.lifetime.end.p0(i64 8, ptr %21) #7
  call void @llvm.lifetime.end.p0(i64 4, ptr %20) #7
  call void @llvm.lifetime.end.p0(i64 4, ptr %19) #7
  call void @llvm.lifetime.end.p0(i64 4, ptr %18) #7
  call void @llvm.lifetime.end.p0(i64 4, ptr %17) #7
  call void @llvm.lifetime.end.p0(i64 4, ptr %16) #7
  call void @llvm.lifetime.end.p0(i64 4, ptr %15) #7
  call void @llvm.lifetime.end.p0(i64 4, ptr %14) #7
  call void @llvm.lifetime.end.p0(i64 4, ptr %13) #7
  call void @llvm.lifetime.end.p0(i64 4, ptr %12) #7
  call void @llvm.lifetime.end.p0(i64 4, ptr %11) #7
  ret i32 1
}