; Function Attrs: null_pointer_is_valid sspstrong uwtable
define internal noundef i32 @bacapp_stats_tree_packet(ptr noundef %0, ptr noundef %1, ptr readnone captures(none) %2, ptr noundef readonly captures(none) %3, i32 %4) #0 {
  %6 = getelementptr inbounds nuw i8, ptr %1, i64 208
  %7 = tail call ptr @address_to_str(ptr noundef null, ptr noundef nonnull %6)
  %8 = tail call noalias ptr (ptr, ptr, ...) @wmem_strconcat(ptr noundef null, ptr noundef nonnull @.str.3953, ptr noundef %7, ptr noundef null)
  tail call void @wmem_free(ptr noundef null, ptr noundef %7)
  %9 = getelementptr inbounds nuw i8, ptr %1, i64 232
  %10 = tail call ptr @address_to_str(ptr noundef null, ptr noundef nonnull %9)
  %11 = tail call noalias ptr (ptr, ptr, ...) @wmem_strconcat(ptr noundef null, ptr noundef nonnull @.str.3954, ptr noundef %10, ptr noundef null)
  tail call void @wmem_free(ptr noundef null, ptr noundef %10)
  %12 = tail call i32 @stats_tree_manip_node_int(i32 noundef 0, ptr noundef %0, ptr noundef nonnull @.str.3955, i32 noundef 0, i1 noundef zeroext true, i32 noundef 1)
  %13 = load i32, ptr @st_node_packets_by_ip, align 4
  %14 = tail call i32 @stats_tree_manip_node_int(i32 noundef 0, ptr noundef %0, ptr noundef nonnull @.str.3956, i32 noundef %13, i1 noundef zeroext true, i32 noundef 1)
  %15 = load i32, ptr @st_node_packets_by_ip, align 4
  %16 = tail call i32 @stats_tree_manip_node_int(i32 noundef 0, ptr noundef %0, ptr noundef nonnull @.str.3957, i32 noundef %15, i1 noundef zeroext true, i32 noundef 1)
  %17 = tail call i32 @stats_tree_manip_node_int(i32 noundef 0, ptr noundef %0, ptr noundef %11, i32 noundef %14, i1 noundef zeroext true, i32 noundef 1)
  %18 = tail call i32 @stats_tree_manip_node_int(i32 noundef 0, ptr noundef %0, ptr noundef %8, i32 noundef %16, i1 noundef zeroext true, i32 noundef 1)
  %19 = tail call i32 @stats_tree_manip_node_int(i32 noundef 0, ptr noundef %0, ptr noundef %11, i32 noundef %18, i1 noundef zeroext true, i32 noundef 1)
  %20 = tail call i32 @stats_tree_manip_node_int(i32 noundef 0, ptr noundef %0, ptr noundef %8, i32 noundef %17, i1 noundef zeroext true, i32 noundef 1)
  %21 = load ptr, ptr %3, align 8
  %.not = icmp eq ptr %21, null
  br i1 %.not, label %37, label %22

22:                                               ; preds = %5
  %23 = tail call i32 @stats_tree_manip_node_int(i32 noundef 0, ptr noundef %0, ptr noundef nonnull %21, i32 noundef %20, i1 noundef zeroext true, i32 noundef 1)
  %24 = load ptr, ptr %3, align 8
  %25 = tail call i32 @stats_tree_manip_node_int(i32 noundef 0, ptr noundef %0, ptr noundef %24, i32 noundef %19, i1 noundef zeroext true, i32 noundef 1)
  %26 = getelementptr inbounds nuw i8, ptr %3, i64 24
  %27 = load ptr, ptr %26, align 8
  %.not40 = icmp eq ptr %27, null
  br i1 %.not40, label %37, label %28

28:                                               ; preds = %22
  %29 = tail call i32 @stats_tree_manip_node_int(i32 noundef 0, ptr noundef %0, ptr noundef nonnull %27, i32 noundef %23, i1 noundef zeroext true, i32 noundef 1)
  %30 = getelementptr inbounds nuw i8, ptr %3, i64 16
  %31 = load ptr, ptr %30, align 8
  %32 = tail call i32 @stats_tree_manip_node_int(i32 noundef 0, ptr noundef %0, ptr noundef %31, i32 noundef %29, i1 noundef zeroext false, i32 noundef 1)
  %33 = load ptr, ptr %26, align 8
  %34 = tail call i32 @stats_tree_manip_node_int(i32 noundef 0, ptr noundef %0, ptr noundef %33, i32 noundef %25, i1 noundef zeroext true, i32 noundef 1)
  %35 = load ptr, ptr %30, align 8
  %36 = tail call i32 @stats_tree_manip_node_int(i32 noundef 0, ptr noundef %0, ptr noundef %35, i32 noundef %34, i1 noundef zeroext false, i32 noundef 1)
  br label %37

37:                                               ; preds = %22, %28, %5
  tail call void @wmem_free(ptr noundef null, ptr noundef %8)
  tail call void @wmem_free(ptr noundef null, ptr noundef %11)
  ret i32 1
}